(dp0
S't_sol'
p1
F17813.0
sS'u_sol'
p2
F5.960000000000186
sS'x_sol'
p3
(dp4
(I106
I30
tp5
I1
s(I89
I56
tp6
I1
s(I35
I107
tp7
I1
s(I50
I49
tp8
I1
s(I40
I41
tp9
I1
s(I18
I19
tp10
I1
s(I97
I71
tp11
I1
s(I73
I82
tp12
I1
s(I102
I122
tp13
I1
s(I10
I7
tp14
I1
s(I100
I111
tp15
I1
s(I112
I66
tp16
I1
s(I57
I122
tp17
I1
s(I70
I119
tp18
I1
s(I80
I122
tp19
I1
s(I84
I51
tp20
I1
s(I42
I87
tp21
I1
s(I115
I122
tp22
I1
s(I74
I73
tp23
I1
s(I103
I99
tp24
I1
s(I1
I67
tp25
I1
s(I30
I29
tp26
I1
s(I75
I97
tp27
I1
s(I55
I64
tp28
I1
s(I79
I50
tp29
I1
s(I17
I13
tp30
I1
s(I23
I38
tp31
I1
s(I117
I118
tp32
I1
s(I62
I113
tp33
I1
s(I16
I122
tp34
I1
s(I107
I109
tp35
I1
s(I7
I8
tp36
I1
s(I6
I16
tp37
I1
s(I76
I45
tp38
I1
s(I122
I74
tp39
I1
s(I88
I100
tp40
I1
s(I43
I46
tp41
I1
s(I122
I48
tp42
I1
s(I71
I93
tp43
I1
s(I20
I26
tp44
I1
s(I53
I52
tp45
I1
s(I99
I108
tp46
I1
s(I3
I18
tp47
I1
s(I60
I53
tp48
I1
s(I28
I27
tp49
I1
s(I122
I70
tp50
I1
s(I41
I122
tp51
I1
s(I82
I77
tp52
I1
s(I45
I34
tp53
I1
s(I61
I78
tp54
I1
s(I109
I106
tp55
I1
s(I12
I35
tp56
I1
s(I54
I94
tp57
I1
s(I119
I116
tp58
I1
s(I21
I58
tp59
I1
s(I85
I86
tp60
I1
s(I24
I25
tp61
I1
s(I81
I85
tp62
I1
s(I110
I84
tp63
I1
s(I25
I20
tp64
I1
s(I90
I96
tp65
I1
s(I98
I47
tp66
I1
s(I37
I28
tp67
I1
s(I31
I33
tp68
I1
s(I0
I122
tp69
I1
s(I72
I75
tp70
I1
s(I121
I114
tp71
I1
s(I48
I98
tp72
I1
s(I95
I90
tp73
I1
s(I11
I14
tp74
I1
s(I14
I9
tp75
I1
s(I104
I101
tp76
I1
s(I122
I21
tp77
I1
s(I87
I88
tp78
I1
s(I101
I103
tp79
I1
s(I52
I65
tp80
I1
s(I108
I102
tp81
I1
s(I120
I121
tp82
I1
s(I91
I43
tp83
I1
s(I44
I42
tp84
I1
s(I122
I44
tp85
I1
s(I49
I40
tp86
I1
s(I122
I110
tp87
I1
s(I29
I104
tp88
I1
s(I67
I0
tp89
I1
s(I116
I2
tp90
I1
s(I22
I17
tp91
I1
s(I122
I22
tp92
I1
s(I51
I91
tp93
I1
s(I94
I80
tp94
I1
s(I92
I59
tp95
I1
s(I59
I95
tp96
I1
s(I56
I1
tp97
I1
s(I46
I54
tp98
I1
s(I93
I39
tp99
I1
s(I111
I89
tp100
I1
s(I105
I60
tp101
I1
s(I19
I5
tp102
I1
s(I68
I37
tp103
I1
s(I15
I6
tp104
I1
s(I26
I81
tp105
I1
s(I2
I4
tp106
I1
s(I83
I72
tp107
I1
s(I38
I36
tp108
I1
s(I113
I61
tp109
I1
s(I122
I105
tp110
I1
s(I58
I62
tp111
I1
s(I64
I63
tp112
I1
s(I4
I117
tp113
I1
s(I33
I32
tp114
I1
s(I47
I79
tp115
I1
s(I34
I122
tp116
I1
s(I118
I3
tp117
I1
s(I96
I122
tp118
I1
s(I122
I12
tp119
I1
s(I114
I115
tp120
I1
s(I86
I92
tp121
I1
s(I36
I31
tp122
I1
s(I8
I122
tp123
I1
s(I13
I11
tp124
I1
s(I27
I23
tp125
I1
s(I69
I68
tp126
I1
s(I65
I57
tp127
I1
s(I9
I10
tp128
I1
s(I5
I15
tp129
I1
s(I77
I83
tp130
I1
s(I122
I112
tp131
I1
s(I78
I55
tp132
I1
s(I122
I24
tp133
I1
s(I32
I122
tp134
I1
s(I39
I76
tp135
I1
s(I66
I69
tp136
I1
s(I63
I120
tp137
I1
ss.